; ModuleID = '22/866.c'
source_filename = "22/866.c"
target datalayout = "e-m:e-p270:32:32-p271:32:32-p272:64:64-i64:64-f80:128-n8:16:32:64-S128"
target triple = "x86_64-pc-linux-gnu"

@.str = private unnamed_addr constant [3 x i8] c"%d\00", align 1
@.str.1 = private unnamed_addr constant [3 x i8] c"%c\00", align 1
@.str.2 = private unnamed_addr constant [3 x i8] c"No\00", align 1

; Function Attrs: noinline nounwind uwtable
define dso_local i32 @main() #0 {
  %1 = alloca i32, align 4
  %2 = alloca i32, align 4
  %3 = alloca [400 x i32], align 16
  %4 = alloca i32, align 4
  %5 = alloca i32, align 4
  %6 = alloca i8, align 1
  store i32 0, i32* %1, align 4
  store i32 0, i32* %2, align 4
  store i8 44, i8* %6, align 1
  store i32 0, i32* %4, align 4
  br label %7

7:                                                ; preds = %11, %0
  %8 = load i8, i8* %6, align 1
  %9 = sext i8 %8 to i32
  %10 = icmp eq i32 %9, 44
  br i1 %10, label %11, label %21

11:                                               ; preds = %7
  %12 = load i32, i32* %4, align 4
  %13 = sext i32 %12 to i64
  %14 = getelementptr inbounds [400 x i32], [400 x i32]* %3, i64 0, i64 %13
  %15 = call i32 (i8*, ...) @__isoc99_scanf(i8* getelementptr inbounds ([3 x i8], [3 x i8]* @.str, i64 0, i64 0), i32* %14)
  %16 = call i32 (i8*, ...) @__isoc99_scanf(i8* getelementptr inbounds ([3 x i8], [3 x i8]* @.str.1, i64 0, i64 0), i8* %6)
  %17 = load i32, i32* %2, align 4
  %18 = add nsw i32 %17, 1
  store i32 %18, i32* %2, align 4
  %19 = load i32, i32* %4, align 4
  %20 = add nsw i32 %19, 1
  store i32 %20, i32* %4, align 4
  br label %7

21:                                               ; preds = %7
  %22 = load i32, i32* %2, align 4
  %23 = icmp eq i32 %22, 1
  br i1 %23, label %24, label %26

24:                                               ; preds = %21
  %25 = call i32 (i8*, ...) @printf(i8* getelementptr inbounds ([3 x i8], [3 x i8]* @.str.2, i64 0, i64 0))
  br label %125

26:                                               ; preds = %21
  store i32 0, i32* %4, align 4
  br label %27

27:                                               ; preds = %52, %26
  %28 = load i32, i32* %4, align 4
  %29 = load i32, i32* %2, align 4
  %30 = icmp slt i32 %28, %29
  br i1 %30, label %31, label %55

31:                                               ; preds = %27
  %32 = load i32, i32* %4, align 4
  %33 = sext i32 %32 to i64
  %34 = getelementptr inbounds [400 x i32], [400 x i32]* %3, i64 0, i64 %33
  %35 = load i32, i32* %34, align 4
  %36 = getelementptr inbounds [400 x i32], [400 x i32]* %3, i64 0, i64 0
  %37 = load i32, i32* %36, align 16
  %38 = icmp sge i32 %35, %37
  br i1 %38, label %39, label %51

39:                                               ; preds = %31
  %40 = getelementptr inbounds [400 x i32], [400 x i32]* %3, i64 0, i64 0
  %41 = load i32, i32* %40, align 16
  store i32 %41, i32* %5, align 4
  %42 = load i32, i32* %4, align 4
  %43 = sext i32 %42 to i64
  %44 = getelementptr inbounds [400 x i32], [400 x i32]* %3, i64 0, i64 %43
  %45 = load i32, i32* %44, align 4
  %46 = getelementptr inbounds [400 x i32], [400 x i32]* %3, i64 0, i64 0
  store i32 %45, i32* %46, align 16
  %47 = load i32, i32* %5, align 4
  %48 = load i32, i32* %4, align 4
  %49 = sext i32 %48 to i64
  %50 = getelementptr inbounds [400 x i32], [400 x i32]* %3, i64 0, i64 %49
  store i32 %47, i32* %50, align 4
  br label %51

51:                                               ; preds = %39, %31
  br label %52

52:                                               ; preds = %51
  %53 = load i32, i32* %4, align 4
  %54 = add nsw i32 %53, 1
  store i32 %54, i32* %4, align 4
  br label %27

55:                                               ; preds = %27
  store i32 0, i32* %5, align 4
  store i32 1, i32* %4, align 4
  br label %56

56:                                               ; preds = %77, %55
  %57 = load i32, i32* %4, align 4
  %58 = load i32, i32* %2, align 4
  %59 = sub nsw i32 %58, 1
  %60 = icmp slt i32 %57, %59
  br i1 %60, label %61, label %80

61:                                               ; preds = %56
  %62 = getelementptr inbounds [400 x i32], [400 x i32]* %3, i64 0, i64 1
  %63 = load i32, i32* %62, align 4
  %64 = getelementptr inbounds [400 x i32], [400 x i32]* %3, i64 0, i64 0
  %65 = load i32, i32* %64, align 16
  %66 = icmp eq i32 %63, %65
  br i1 %66, label %67, label %76

67:                                               ; preds = %61
  %68 = load i32, i32* %4, align 4
  %69 = add nsw i32 %68, 1
  %70 = sext i32 %69 to i64
  %71 = getelementptr inbounds [400 x i32], [400 x i32]* %3, i64 0, i64 %70
  %72 = load i32, i32* %71, align 4
  %73 = getelementptr inbounds [400 x i32], [400 x i32]* %3, i64 0, i64 1
  store i32 %72, i32* %73, align 4
  %74 = load i32, i32* %4, align 4
  %75 = add nsw i32 %74, 1
  store i32 %75, i32* %5, align 4
  br label %76

76:                                               ; preds = %67, %61
  br label %77

77:                                               ; preds = %76
  %78 = load i32, i32* %4, align 4
  %79 = add nsw i32 %78, 1
  store i32 %79, i32* %4, align 4
  br label %56

80:                                               ; preds = %56
  %81 = getelementptr inbounds [400 x i32], [400 x i32]* %3, i64 0, i64 1
  %82 = load i32, i32* %81, align 4
  %83 = getelementptr inbounds [400 x i32], [400 x i32]* %3, i64 0, i64 0
  %84 = load i32, i32* %83, align 16
  %85 = icmp eq i32 %82, %84
  br i1 %85, label %86, label %88

86:                                               ; preds = %80
  %87 = call i32 (i8*, ...) @printf(i8* getelementptr inbounds ([3 x i8], [3 x i8]* @.str.2, i64 0, i64 0))
  br label %124

88:                                               ; preds = %80
  %89 = load i32, i32* %5, align 4
  store i32 %89, i32* %4, align 4
  br label %90

90:                                               ; preds = %117, %88
  %91 = load i32, i32* %4, align 4
  %92 = load i32, i32* %2, align 4
  %93 = icmp slt i32 %91, %92
  br i1 %93, label %94, label %120

94:                                               ; preds = %90
  %95 = load i32, i32* %4, align 4
  %96 = sext i32 %95 to i64
  %97 = getelementptr inbounds [400 x i32], [400 x i32]* %3, i64 0, i64 %96
  %98 = load i32, i32* %97, align 4
  %99 = getelementptr inbounds [400 x i32], [400 x i32]* %3, i64 0, i64 1
  %100 = load i32, i32* %99, align 4
  %101 = icmp sgt i32 %98, %100
  br i1 %101, label %102, label %116

102:                                              ; preds = %94
  %103 = load i32, i32* %4, align 4
  %104 = sext i32 %103 to i64
  %105 = getelementptr inbounds [400 x i32], [400 x i32]* %3, i64 0, i64 %104
  %106 = load i32, i32* %105, align 4
  %107 = getelementptr inbounds [400 x i32], [400 x i32]* %3, i64 0, i64 0
  %108 = load i32, i32* %107, align 16
  %109 = icmp slt i32 %106, %108
  br i1 %109, label %110, label %116

110:                                              ; preds = %102
  %111 = load i32, i32* %4, align 4
  %112 = sext i32 %111 to i64
  %113 = getelementptr inbounds [400 x i32], [400 x i32]* %3, i64 0, i64 %112
  %114 = load i32, i32* %113, align 4
  %115 = getelementptr inbounds [400 x i32], [400 x i32]* %3, i64 0, i64 1
  store i32 %114, i32* %115, align 4
  br label %116

116:                                              ; preds = %110, %102, %94
  br label %117

117:                                              ; preds = %116
  %118 = load i32, i32* %4, align 4
  %119 = add nsw i32 %118, 1
  store i32 %119, i32* %4, align 4
  br label %90

120:                                              ; preds = %90
  %121 = getelementptr inbounds [400 x i32], [400 x i32]* %3, i64 0, i64 1
  %122 = load i32, i32* %121, align 4
  %123 = call i32 (i8*, ...) @printf(i8* getelementptr inbounds ([3 x i8], [3 x i8]* @.str, i64 0, i64 0), i32 %122)
  br label %124

124:                                              ; preds = %120, %86
  br label %125

125:                                              ; preds = %124, %24
  ret i32 0
}

declare dso_local i32 @__isoc99_scanf(i8*, ...) #1

declare dso_local i32 @printf(i8*, ...) #1


!llvm.module.flags = !{!0}
!llvm.ident = !{!1}

!0 = !{i32 1, !"wchar_size", i32 4}
!1 = !{!"clang version 10.0.0-4ubuntu1 "}
